target datalayout = "e-m:e-p270:32:32-p271:32:32-p272:64:64-i64:64-i128:128-f80:128-n8:16:32:64-S128"
target triple = "x86_64-pc-linux-gnu"

%struct.WebPInfo = type { i32, i32, i32, i32, [9 x i32], [3 x i32], i32, i32, i32, i32, i32, i64, i32, i32, i32, i32, i32, i32, i32, i32 }
%struct.ChunkData = type { i64, i64, ptr, i32 }

@stderr = external global ptr, align 8
@.str.16 = private unnamed_addr constant [11 x i8] c"Error: %s\0A\00", align 1
@.str.82 = private unnamed_addr constant [33 x i8] c"  Parsing lossless bitstream...\0A\00", align 1
@.str.83 = private unnamed_addr constant [30 x i8] c"Truncated lossless bitstream.\00", align 1
@.str.84 = private unnamed_addr constant [38 x i8] c"Invalid lossless bitstream signature.\00", align 1
@.str.85 = private unnamed_addr constant [24 x i8] c"  Width:            %d\0A\00", align 1
@.str.86 = private unnamed_addr constant [24 x i8] c"  Height:           %d\0A\00", align 1
@.str.87 = private unnamed_addr constant [24 x i8] c"  Alpha:            %d\0A\00", align 1
@.str.88 = private unnamed_addr constant [24 x i8] c"  Version:          %d\0A\00", align 1

; Function Attrs: nounwind uwtable
define internal i32 @LLGetBits(ptr noundef %0, i64 noundef %1, i64 noundef %2, ptr noundef %3, ptr noundef %4) #0 {
  %6 = alloca i32, align 4
  %7 = alloca ptr, align 8
  %8 = alloca i64, align 8
  %9 = alloca i64, align 8
  %10 = alloca ptr, align 8
  %11 = alloca ptr, align 8
  %12 = alloca i32, align 4
  %13 = alloca i64, align 8
  %14 = alloca i32, align 4
  store ptr %0, ptr %7, align 8
  store i64 %1, ptr %8, align 8
  store i64 %2, ptr %9, align 8
  store ptr %3, ptr %10, align 8
  store ptr %4, ptr %11, align 8
  store i32 0, ptr %12, align 4
  %15 = load ptr, ptr %10, align 8
  store i32 0, ptr %15, align 4
  br label %16

16:                                               ; preds = %55, %5
  %17 = load i32, ptr %12, align 4
  %18 = zext i32 %17 to i64
  %19 = load i64, ptr %9, align 8
  %20 = icmp ult i64 %18, %19
  br i1 %20, label %21, label %56

21:                                               ; preds = %16
  %22 = load ptr, ptr %11, align 8
  %23 = load i64, ptr %22, align 8
  %24 = add i64 %23, 1
  store i64 %24, ptr %22, align 8
  store i64 %23, ptr %13, align 8
  %25 = load i64, ptr %13, align 8
  %26 = lshr i64 %25, 3
  %27 = load i64, ptr %8, align 8
  %28 = icmp uge i64 %26, %27
  br i1 %28, label %29, label %30

29:                                               ; preds = %21
  store i32 0, ptr %6, align 4
  br label %57

30:                                               ; preds = %21
  %31 = load ptr, ptr %7, align 8
  %32 = load i64, ptr %13, align 8
  %33 = lshr i64 %32, 3
  %34 = getelementptr inbounds i8, ptr %31, i64 %33
  %35 = load i8, ptr %34, align 1
  %36 = zext i8 %35 to i32
  %37 = load i64, ptr %13, align 8
  %38 = and i64 %37, 7
  %39 = trunc i64 %38 to i32
  %40 = shl i32 1, %39
  %41 = and i32 %36, %40
  %42 = icmp ne i32 %41, 0
  %43 = xor i1 %42, true
  %44 = xor i1 %43, true
  %45 = zext i1 %44 to i32
  store i32 %45, ptr %14, align 4
  %46 = load ptr, ptr %10, align 8
  %47 = load i32, ptr %46, align 4
  %48 = load i32, ptr %14, align 4
  %49 = load i32, ptr %12, align 4
  %50 = shl i32 %48, %49
  %51 = or i32 %47, %50
  %52 = load ptr, ptr %10, align 8
  store i32 %51, ptr %52, align 4
  %53 = load i32, ptr %12, align 4
  %54 = add i32 %53, 1
  store i32 %54, ptr %12, align 4
  br label %55

55:                                               ; preds = %30
  br label %16, !llvm.loop !17

56:                                               ; preds = %16
  store i32 1, ptr %6, align 4
  br label %57

57:                                               ; preds = %56, %29
  %58 = load i32, ptr %6, align 4
  ret i32 %58
}

; Function Attrs: nounwind uwtable
define internal i32 @ParseLosslessHeader(ptr noundef %0, ptr noundef %1) #0 {
  %3 = alloca i32, align 4
  %4 = alloca ptr, align 8
  %5 = alloca ptr, align 8
  %6 = alloca ptr, align 8
  %7 = alloca i64, align 8
  %8 = alloca i64, align 8
  %9 = alloca ptr, align 8
  %10 = alloca i32, align 4
  %11 = alloca i32, align 4
  %12 = alloca i32, align 4
  %13 = alloca i32, align 4
  %14 = alloca i32, align 4
  store ptr %0, ptr %4, align 8
  store ptr %1, ptr %5, align 8
  %15 = load ptr, ptr %4, align 8
  %16 = getelementptr inbounds %struct.ChunkData, ptr %15, i32 0, i32 2
  %17 = load ptr, ptr %16, align 8
  store ptr %17, ptr %6, align 8
  %18 = load ptr, ptr %4, align 8
  %19 = getelementptr inbounds %struct.ChunkData, ptr %18, i32 0, i32 1
  %20 = load i64, ptr %19, align 8
  %21 = sub i64 %20, 8
  store i64 %21, ptr %7, align 8
  store i64 0, ptr %8, align 8
  store ptr %8, ptr %9, align 8
  %22 = call i32 (ptr, ...) @printf(ptr noundef @.str.82)
  %23 = load i64, ptr %7, align 8
  %24 = icmp ult i64 %23, 5
  br i1 %24, label %25, label %36

25:                                               ; preds = %2
  br label %26

26:                                               ; preds = %25
  %27 = load ptr, ptr %5, align 8
  %28 = getelementptr inbounds %struct.WebPInfo, ptr %27, i32 0, i32 16
  %29 = load i32, ptr %28, align 8
  %30 = icmp ne i32 %29, 0
  br i1 %30, label %31, label %34

31:                                               ; preds = %26
  %32 = load ptr, ptr @stderr, align 8
  %33 = call i32 (ptr, ptr, ...) @fprintf(ptr noundef %32, ptr noundef @.str.16, ptr noundef @.str.83) #7
  br label %34

34:                                               ; preds = %31, %26
  br label %35

35:                                               ; preds = %34
  store i32 1, ptr %3, align 4
  br label %156

36:                                               ; preds = %2
  %37 = load ptr, ptr %6, align 8
  %38 = getelementptr inbounds i8, ptr %37, i64 0
  %39 = load i8, ptr %38, align 1
  %40 = zext i8 %39 to i32
  %41 = icmp ne i32 %40, 47
  br i1 %41, label %42, label %53

42:                                               ; preds = %36
  br label %43

43:                                               ; preds = %42
  %44 = load ptr, ptr %5, align 8
  %45 = getelementptr inbounds %struct.WebPInfo, ptr %44, i32 0, i32 16
  %46 = load i32, ptr %45, align 8
  %47 = icmp ne i32 %46, 0
  br i1 %47, label %48, label %51

48:                                               ; preds = %43
  %49 = load ptr, ptr @stderr, align 8
  %50 = call i32 (ptr, ptr, ...) @fprintf(ptr noundef %49, ptr noundef @.str.16, ptr noundef @.str.84) #7
  br label %51

51:                                               ; preds = %48, %43
  br label %52

52:                                               ; preds = %51
  store i32 4, ptr %3, align 4
  br label %156

53:                                               ; preds = %36
  %54 = load ptr, ptr %6, align 8
  %55 = getelementptr inbounds i8, ptr %54, i64 1
  store ptr %55, ptr %6, align 8
  %56 = load i64, ptr %7, align 8
  %57 = sub i64 %56, 1
  store i64 %57, ptr %7, align 8
  br label %58

58:                                               ; preds = %53
  %59 = load ptr, ptr %6, align 8
  %60 = load i64, ptr %7, align 8
  %61 = load ptr, ptr %9, align 8
  %62 = call i32 @LLGetBits(ptr noundef %59, i64 noundef %60, i64 noundef 14, ptr noundef %11, ptr noundef %61)
  %63 = icmp ne i32 %62, 0
  br i1 %63, label %75, label %64

64:                                               ; preds = %58
  br label %65

65:                                               ; preds = %64
  %66 = load ptr, ptr %5, align 8
  %67 = getelementptr inbounds %struct.WebPInfo, ptr %66, i32 0, i32 16
  %68 = load i32, ptr %67, align 8
  %69 = icmp ne i32 %68, 0
  br i1 %69, label %70, label %73

70:                                               ; preds = %65
  %71 = load ptr, ptr @stderr, align 8
  %72 = call i32 (ptr, ptr, ...) @fprintf(ptr noundef %71, ptr noundef @.str.16, ptr noundef @.str.83) #7
  br label %73

73:                                               ; preds = %70, %65
  br label %74

74:                                               ; preds = %73
  store i32 1, ptr %3, align 4
  br label %156

75:                                               ; preds = %58
  br label %76

76:                                               ; preds = %75
  br label %77

77:                                               ; preds = %76
  %78 = load ptr, ptr %6, align 8
  %79 = load i64, ptr %7, align 8
  %80 = load ptr, ptr %9, align 8
  %81 = call i32 @LLGetBits(ptr noundef %78, i64 noundef %79, i64 noundef 14, ptr noundef %12, ptr noundef %80)
  %82 = icmp ne i32 %81, 0
  br i1 %82, label %94, label %83

83:                                               ; preds = %77
  br label %84

84:                                               ; preds = %83
  %85 = load ptr, ptr %5, align 8
  %86 = getelementptr inbounds %struct.WebPInfo, ptr %85, i32 0, i32 16
  %87 = load i32, ptr %86, align 8
  %88 = icmp ne i32 %87, 0
  br i1 %88, label %89, label %92

89:                                               ; preds = %84
  %90 = load ptr, ptr @stderr, align 8
  %91 = call i32 (ptr, ptr, ...) @fprintf(ptr noundef %90, ptr noundef @.str.16, ptr noundef @.str.83) #7
  br label %92

92:                                               ; preds = %89, %84
  br label %93

93:                                               ; preds = %92
  store i32 1, ptr %3, align 4
  br label %156

94:                                               ; preds = %77
  br label %95

95:                                               ; preds = %94
  br label %96

96:                                               ; preds = %95
  %97 = load ptr, ptr %6, align 8
  %98 = load i64, ptr %7, align 8
  %99 = load ptr, ptr %9, align 8
  %100 = call i32 @LLGetBits(ptr noundef %97, i64 noundef %98, i64 noundef 1, ptr noundef %13, ptr noundef %99)
  %101 = icmp ne i32 %100, 0
  br i1 %101, label %113, label %102

102:                                              ; preds = %96
  br label %103

103:                                              ; preds = %102
  %104 = load ptr, ptr %5, align 8
  %105 = getelementptr inbounds %struct.WebPInfo, ptr %104, i32 0, i32 16
  %106 = load i32, ptr %105, align 8
  %107 = icmp ne i32 %106, 0
  br i1 %107, label %108, label %111

108:                                              ; preds = %103
  %109 = load ptr, ptr @stderr, align 8
  %110 = call i32 (ptr, ptr, ...) @fprintf(ptr noundef %109, ptr noundef @.str.16, ptr noundef @.str.83) #7
  br label %111

111:                                              ; preds = %108, %103
  br label %112

112:                                              ; preds = %111
  store i32 1, ptr %3, align 4
  br label %156

113:                                              ; preds = %96
  br label %114

114:                                              ; preds = %113
  br label %115

115:                                              ; preds = %114
  %116 = load ptr, ptr %6, align 8
  %117 = load i64, ptr %7, align 8
  %118 = load ptr, ptr %9, align 8
  %119 = call i32 @LLGetBits(ptr noundef %116, i64 noundef %117, i64 noundef 3, ptr noundef %14, ptr noundef %118)
  %120 = icmp ne i32 %119, 0
  br i1 %120, label %132, label %121

121:                                              ; preds = %115
  br label %122

122:                                              ; preds = %121
  %123 = load ptr, ptr %5, align 8
  %124 = getelementptr inbounds %struct.WebPInfo, ptr %123, i32 0, i32 16
  %125 = load i32, ptr %124, align 8
  %126 = icmp ne i32 %125, 0
  br i1 %126, label %127, label %130

127:                                              ; preds = %122
  %128 = load ptr, ptr @stderr, align 8
  %129 = call i32 (ptr, ptr, ...) @fprintf(ptr noundef %128, ptr noundef @.str.16, ptr noundef @.str.83) #7
  br label %130

130:                                              ; preds = %127, %122
  br label %131

131:                                              ; preds = %130
  store i32 1, ptr %3, align 4
  br label %156

132:                                              ; preds = %115
  br label %133

133:                                              ; preds = %132
  %134 = load i32, ptr %11, align 4
  %135 = add nsw i32 %134, 1
  store i32 %135, ptr %11, align 4
  %136 = load i32, ptr %12, align 4
  %137 = add nsw i32 %136, 1
  store i32 %137, ptr %12, align 4
  %138 = load i32, ptr %11, align 4
  %139 = call i32 (ptr, ...) @printf(ptr noundef @.str.85, i32 noundef %138)
  %140 = load i32, ptr %12, align 4
  %141 = call i32 (ptr, ...) @printf(ptr noundef @.str.86, i32 noundef %140)
  %142 = load i32, ptr %13, align 4
  %143 = call i32 (ptr, ...) @printf(ptr noundef @.str.87, i32 noundef %142)
  %144 = load i32, ptr %14, align 4
  %145 = call i32 (ptr, ...) @printf(ptr noundef @.str.88, i32 noundef %144)
  %146 = load ptr, ptr %5, align 8
  %147 = load ptr, ptr %6, align 8
  %148 = load i64, ptr %7, align 8
  %149 = load ptr, ptr %9, align 8
  %150 = call i32 @ParseLosslessTransform(ptr noundef %146, ptr noundef %147, i64 noundef %148, ptr noundef %149)
  store i32 %150, ptr %10, align 4
  %151 = load i32, ptr %10, align 4
  %152 = icmp ne i32 %151, 0
  br i1 %152, label %153, label %155

153:                                              ; preds = %133
  %154 = load i32, ptr %10, align 4
  store i32 %154, ptr %3, align 4
  br label %156

155:                                              ; preds = %133
  store i32 0, ptr %3, align 4
  br label %156

156:                                              ; preds = %155, %153, %131, %112, %93, %74, %52, %35
  %157 = load i32, ptr %3, align 4
  ret i32 %157
}