; Function Attrs: nofree nounwind uwtable
define internal fastcc range(i32 0, 5) i32 @ParseLosslessHeader(i64 %.8.val, ptr nocapture readonly %.16.val, ptr nocapture noundef readonly %0) unnamed_addr #6 {
  %2 = alloca i64, align 8
  %3 = add i64 %.8.val, -8
  %puts = tail call i32 @puts(ptr nonnull dereferenceable(1) @str.7)
  %4 = icmp ult i64 %3, 5
  br i1 %4, label %5, label %11

5:                                                ; preds = %1
  %6 = getelementptr inbounds i8, ptr %0, i64 112
  %7 = load i32, ptr %6, align 8
  %.not42 = icmp eq i32 %7, 0
  br i1 %.not42, label %100, label %8

8:                                                ; preds = %5
  %9 = load ptr, ptr @stderr, align 8
  %10 = tail call i32 (ptr, ptr, ...) @fprintf(ptr noundef %9, ptr noundef nonnull @.str.16, ptr noundef nonnull @.str.83) #13
  br label %100

11:                                               ; preds = %1
  %12 = load i8, ptr %.16.val, align 1
  %.not = icmp eq i8 %12, 47
  br i1 %.not, label %19, label %13

13:                                               ; preds = %11
  %14 = getelementptr inbounds i8, ptr %0, i64 112
  %15 = load i32, ptr %14, align 8
  %.not41 = icmp eq i32 %15, 0
  br i1 %.not41, label %100, label %16

16:                                               ; preds = %13
  %17 = load ptr, ptr @stderr, align 8
  %18 = tail call i32 (ptr, ptr, ...) @fprintf(ptr noundef %17, ptr noundef nonnull @.str.16, ptr noundef nonnull @.str.84) #13
  br label %100

19:                                               ; preds = %11
  %20 = getelementptr inbounds i8, ptr %.16.val, i64 1
  %21 = add i64 %.8.val, -9
  br label %.lr.ph.i

.lr.ph.i:                                         ; preds = %24, %19
  %22 = phi i64 [ 0, %19 ], [ %25, %24 ]
  %.014 = phi i32 [ 0, %19 ], [ %34, %24 ]
  %.01416.i = phi i32 [ 0, %19 ], [ %35, %24 ]
  %23 = lshr i64 %22, 3
  %.not.i = icmp ult i64 %23, %21
  br i1 %.not.i, label %24, label %36

24:                                               ; preds = %.lr.ph.i
  %25 = add i64 %22, 1
  %26 = getelementptr inbounds i8, ptr %20, i64 %23
  %27 = load i8, ptr %26, align 1
  %28 = zext i8 %27 to i32
  %29 = trunc i64 %22 to i32
  %30 = and i32 %29, 7
  %31 = lshr i32 %28, %30
  %32 = and i32 %31, 1
  %33 = shl nuw i32 %32, %.01416.i
  %34 = or i32 %33, %.014
  %35 = add nuw nsw i32 %.01416.i, 1
  %exitcond.not = icmp eq i32 %35, 14
  br i1 %exitcond.not, label %.lr.ph.i43, label %.lr.ph.i, !llvm.loop !13

36:                                               ; preds = %.lr.ph.i
  %37 = getelementptr inbounds i8, ptr %0, i64 112
  %38 = load i32, ptr %37, align 8
  %.not33 = icmp eq i32 %38, 0
  br i1 %.not33, label %100, label %39

39:                                               ; preds = %36
  %40 = load ptr, ptr @stderr, align 8
  %41 = tail call i32 (ptr, ptr, ...) @fprintf(ptr noundef %40, ptr noundef nonnull @.str.16, ptr noundef nonnull @.str.83) #13
  br label %100

.lr.ph.i43:                                       ; preds = %24, %44
  %42 = phi i64 [ %45, %44 ], [ 14, %24 ]
  %.012 = phi i32 [ %54, %44 ], [ 0, %24 ]
  %.01416.i44 = phi i32 [ %55, %44 ], [ 0, %24 ]
  %43 = lshr i64 %42, 3
  %.not.i45 = icmp ult i64 %43, %21
  br i1 %.not.i45, label %44, label %56

44:                                               ; preds = %.lr.ph.i43
  %45 = add i64 %42, 1
  %46 = getelementptr inbounds i8, ptr %20, i64 %43
  %47 = load i8, ptr %46, align 1
  %48 = zext i8 %47 to i32
  %49 = trunc i64 %42 to i32
  %50 = and i32 %49, 7
  %51 = lshr i32 %48, %50
  %52 = and i32 %51, 1
  %53 = shl nuw i32 %52, %.01416.i44
  %54 = or i32 %53, %.012
  %55 = add nuw nsw i32 %.01416.i44, 1
  %exitcond53.not = icmp eq i32 %55, 14
  br i1 %exitcond53.not, label %.lr.ph.i48.preheader, label %.lr.ph.i43, !llvm.loop !13

.lr.ph.i48.preheader:                             ; preds = %44
  %.not.i50 = icmp ugt i64 %21, 3
  br i1 %.not.i50, label %.lr.ph.i53.preheader, label %67

56:                                               ; preds = %.lr.ph.i43
  %57 = getelementptr inbounds i8, ptr %0, i64 112
  %58 = load i32, ptr %57, align 8
  %.not35 = icmp eq i32 %58, 0
  br i1 %.not35, label %100, label %59

59:                                               ; preds = %56
  %60 = load ptr, ptr @stderr, align 8
  %61 = tail call i32 (ptr, ptr, ...) @fprintf(ptr noundef %60, ptr noundef nonnull @.str.16, ptr noundef nonnull @.str.83) #13
  br label %100

.lr.ph.i53.preheader:                             ; preds = %.lr.ph.i48.preheader
  %62 = getelementptr inbounds i8, ptr %.16.val, i64 4
  %63 = load i8, ptr %62, align 1
  %64 = lshr i8 %63, 4
  %65 = and i8 %64, 1
  %66 = zext nneg i8 %65 to i32
  br label %.lr.ph.i53

67:                                               ; preds = %.lr.ph.i48.preheader
  %68 = getelementptr inbounds i8, ptr %0, i64 112
  %69 = load i32, ptr %68, align 8
  %.not37 = icmp eq i32 %69, 0
  br i1 %.not37, label %100, label %70

70:                                               ; preds = %67
  %71 = load ptr, ptr @stderr, align 8
  %72 = tail call i32 (ptr, ptr, ...) @fprintf(ptr noundef %71, ptr noundef nonnull @.str.16, ptr noundef nonnull @.str.83) #13
  br label %100

.lr.ph.i53:                                       ; preds = %.lr.ph.i53.preheader, %75
  %73 = phi i64 [ %76, %75 ], [ 29, %.lr.ph.i53.preheader ]
  %.09 = phi i32 [ %85, %75 ], [ 0, %.lr.ph.i53.preheader ]
  %.01416.i54 = phi i32 [ %86, %75 ], [ 0, %.lr.ph.i53.preheader ]
  %74 = lshr i64 %73, 3
  %.not.i55 = icmp ult i64 %74, %21
  br i1 %.not.i55, label %75, label %87

75:                                               ; preds = %.lr.ph.i53
  %76 = add i64 %73, 1
  %77 = getelementptr inbounds i8, ptr %20, i64 %74
  %78 = load i8, ptr %77, align 1
  %79 = zext i8 %78 to i32
  %80 = trunc i64 %73 to i32
  %81 = and i32 %80, 7
  %82 = lshr i32 %79, %81
  %83 = and i32 %82, 1
  %84 = shl nuw i32 %83, %.01416.i54
  %85 = or i32 %84, %.09
  %86 = add nuw nsw i32 %.01416.i54, 1
  %exitcond54.not = icmp eq i32 %86, 3
  br i1 %exitcond54.not, label %LLGetBits.exit57, label %.lr.ph.i53, !llvm.loop !13

87:                                               ; preds = %.lr.ph.i53
  %88 = getelementptr inbounds i8, ptr %0, i64 112
  %89 = load i32, ptr %88, align 8
  %.not39 = icmp eq i32 %89, 0
  br i1 %.not39, label %100, label %90

90:                                               ; preds = %87
  %91 = load ptr, ptr @stderr, align 8
  %92 = tail call i32 (ptr, ptr, ...) @fprintf(ptr noundef %91, ptr noundef nonnull @.str.16, ptr noundef nonnull @.str.83) #13
  br label %100

LLGetBits.exit57:                                 ; preds = %75
  store i64 32, ptr %2, align 8
  %93 = add nsw i32 %34, 1
  %94 = add nsw i32 %54, 1
  %95 = tail call i32 (ptr, ...) @printf(ptr noundef nonnull dereferenceable(1) @.str.85, i32 noundef %93)
  %96 = tail call i32 (ptr, ...) @printf(ptr noundef nonnull dereferenceable(1) @.str.86, i32 noundef %94)
  %97 = tail call i32 (ptr, ...) @printf(ptr noundef nonnull dereferenceable(1) @.str.87, i32 noundef %66)
  %98 = tail call i32 (ptr, ...) @printf(ptr noundef nonnull dereferenceable(1) @.str.88, i32 noundef %85)
  %99 = call fastcc i32 @ParseLosslessTransform(ptr noundef %0, ptr noundef nonnull %20, i64 noundef %21, ptr noundef nonnull %2)
  br label %100

100:                                              ; preds = %LLGetBits.exit57, %90, %87, %70, %67, %59, %56, %39, %36, %16, %13, %8, %5
  %.0 = phi i32 [ 1, %5 ], [ 1, %8 ], [ 4, %13 ], [ 4, %16 ], [ 1, %36 ], [ 1, %39 ], [ 1, %56 ], [ 1, %59 ], [ 1, %67 ], [ 1, %70 ], [ 1, %87 ], [ 1, %90 ], [ %99, %LLGetBits.exit57 ]
  ret i32 %.0
}